target datalayout = "e-m:e-p270:32:32-p271:32:32-p272:64:64-i64:64-i128:128-f80:128-n8:16:32:64-S128"
target triple = "x86_64-pc-linux-gnu"

@.str.2 = private unnamed_addr constant [8 x i8] c"UNKNOWN\00", align 1
@.str.3 = private unnamed_addr constant [11 x i8] c"CET_COMPAT\00", align 1
@.str.4 = private unnamed_addr constant [23 x i8] c"CET_COMPAT_STRICT_MODE\00", align 1
@.str.5 = private unnamed_addr constant [43 x i8] c"CET_SET_CONTEXT_IP_VALIDATION_RELAXED_MODE\00", align 1
@.str.6 = private unnamed_addr constant [31 x i8] c"CET_DYNAMIC_APIS_ALLOW_IN_PROC\00", align 1
@.str.7 = private unnamed_addr constant [15 x i8] c"CET_RESERVED_1\00", align 1
@.str.8 = private unnamed_addr constant [15 x i8] c"CET_RESERVED_2\00", align 1
@.str.9 = private unnamed_addr constant [19 x i8] c"FORWARD_CFI_COMPAT\00", align 1
@.str.10 = private unnamed_addr constant [20 x i8] c"HOTPATCH_COMPATIBLE\00", align 1

; Function Attrs: mustprogress nounwind uwtable
define noundef ptr @_ZN4LIEF2PE9to_stringENS0_20ExDllCharacteristics15CHARACTERISTICSE(i32 noundef %0) #1 {
  %2 = alloca ptr, align 8
  %3 = alloca i32, align 4
  store i32 %0, ptr %3, align 4, !tbaa !45
  %4 = load i32, ptr %3, align 4, !tbaa !45
  switch i32 %4, label %5 [
    i32 1, label %6
    i32 2, label %7
    i32 4, label %8
    i32 8, label %9
    i32 16, label %10
    i32 32, label %11
    i32 64, label %12
    i32 128, label %13
  ]

5:                                                ; preds = %1
  store ptr @.str.2, ptr %2, align 8
  br label %14

6:                                                ; preds = %1
  store ptr @.str.3, ptr %2, align 8
  br label %14

7:                                                ; preds = %1
  store ptr @.str.4, ptr %2, align 8
  br label %14

8:                                                ; preds = %1
  store ptr @.str.5, ptr %2, align 8
  br label %14

9:                                                ; preds = %1
  store ptr @.str.6, ptr %2, align 8
  br label %14

10:                                               ; preds = %1
  store ptr @.str.7, ptr %2, align 8
  br label %14

11:                                               ; preds = %1
  store ptr @.str.8, ptr %2, align 8
  br label %14

12:                                               ; preds = %1
  store ptr @.str.9, ptr %2, align 8
  br label %14

13:                                               ; preds = %1
  store ptr @.str.10, ptr %2, align 8
  br label %14

14:                                               ; preds = %13, %12, %11, %10, %9, %8, %7, %6, %5
  %15 = load ptr, ptr %2, align 8
  ret ptr %15
}