; Function Attrs: mustprogress nofree norecurse nosync nounwind willreturn memory(none) uwtable
define noundef nonnull ptr @_ZN4LIEF2PE9to_stringENS0_20ExDllCharacteristics15CHARACTERISTICSE(i32 noundef %0) local_unnamed_addr #3 {
  switch i32 %0, label %10 [
    i32 1, label %2
    i32 2, label %3
    i32 4, label %4
    i32 8, label %5
    i32 16, label %6
    i32 32, label %7
    i32 64, label %8
    i32 128, label %9
  ]

2:                                                ; preds = %1
  br label %10

3:                                                ; preds = %1
  br label %10

4:                                                ; preds = %1
  br label %10

5:                                                ; preds = %1
  br label %10

6:                                                ; preds = %1
  br label %10

7:                                                ; preds = %1
  br label %10

8:                                                ; preds = %1
  br label %10

9:                                                ; preds = %1
  br label %10

10:                                               ; preds = %1, %9, %8, %7, %6, %5, %4, %3, %2
  %.0 = phi ptr [ @.str.10, %9 ], [ @.str.9, %8 ], [ @.str.8, %7 ], [ @.str.7, %6 ], [ @.str.6, %5 ], [ @.str.5, %4 ], [ @.str.4, %3 ], [ @.str.3, %2 ], [ @.str.2, %1 ]
  ret ptr %.0
}